target datalayout = "e-m:e-p270:32:32-p271:32:32-p272:64:64-i64:64-i128:128-f80:128-n8:16:32:64-S128"
target triple = "x86_64-pc-linux-gnu"

%"class.Ipopt::IpoptAlgorithm" = type { %"class.Ipopt::AlgorithmStrategyObject.base", %"class.Ipopt::SmartPtr.3", %"class.Ipopt::SmartPtr.4", %"class.Ipopt::SmartPtr.5", %"class.Ipopt::SmartPtr.6", %"class.Ipopt::SmartPtr.7", %"class.Ipopt::SmartPtr.8", %"class.Ipopt::SmartPtr.9", %"class.Ipopt::SmartPtr.10", i8, double, i8, double, i8, %"class.std::__cxx11::basic_string", double }
%"class.Ipopt::AlgorithmStrategyObject.base" = type <{ %"class.Ipopt::ReferencedObject.base", [4 x i8], %"class.Ipopt::SmartPtr", %"class.Ipopt::SmartPtr.0", %"class.Ipopt::SmartPtr.1", %"class.Ipopt::SmartPtr.2", i8 }>
%"class.Ipopt::ReferencedObject.base" = type <{ ptr, i32 }>
%"class.Ipopt::SmartPtr" = type { ptr }
%"class.Ipopt::SmartPtr.0" = type { ptr }
%"class.Ipopt::SmartPtr.1" = type { ptr }
%"class.Ipopt::SmartPtr.2" = type { ptr }
%"class.Ipopt::SmartPtr.3" = type { ptr }
%"class.Ipopt::SmartPtr.4" = type { ptr }
%"class.Ipopt::SmartPtr.5" = type { ptr }
%"class.Ipopt::SmartPtr.6" = type { ptr }
%"class.Ipopt::SmartPtr.7" = type { ptr }
%"class.Ipopt::SmartPtr.8" = type { ptr }
%"class.Ipopt::SmartPtr.9" = type { ptr }
%"class.Ipopt::SmartPtr.10" = type { ptr }
%"class.std::__cxx11::basic_string" = type { %"struct.std::__cxx11::basic_string<char>::_Alloc_hider", i64, %union.anon }
%"struct.std::__cxx11::basic_string<char>::_Alloc_hider" = type { ptr }
%union.anon = type { i64, [8 x i8] }
%"class.Ipopt::AlgorithmStrategyObject" = type <{ %"class.Ipopt::ReferencedObject.base", [4 x i8], %"class.Ipopt::SmartPtr", %"class.Ipopt::SmartPtr.0", %"class.Ipopt::SmartPtr.1", %"class.Ipopt::SmartPtr.2", i8, [7 x i8] }>
%"class.Ipopt::IpoptData" = type { %"class.Ipopt::ReferencedObject.base", %"class.Ipopt::SmartPtr.27", %"class.Ipopt::SmartPtr.27", %"class.Ipopt::SmartPtr.28", %"class.Ipopt::SmartPtr.27", i8, %"class.Ipopt::SmartPtr.27", i8, i32, double, i8, double, i8, i8, i8, double, i8, i8, double, double, i8, double, i32, i8, %"class.std::__cxx11::basic_string", double, i32, %"class.Ipopt::SmartPtr.29", %"class.Ipopt::TimingStatistics", %"class.Ipopt::SmartPtr.30", double, double, double, double }
%"class.Ipopt::SmartPtr.28" = type { ptr }
%"class.Ipopt::SmartPtr.27" = type { ptr }
%"class.Ipopt::SmartPtr.29" = type { ptr }
%"class.Ipopt::TimingStatistics" = type { %"class.Ipopt::ReferencedObject.base", [4 x i8], %"class.Ipopt::TimedTask", %"class.Ipopt::TimedTask", %"class.Ipopt::TimedTask", %"class.Ipopt::TimedTask", %"class.Ipopt::TimedTask", %"class.Ipopt::TimedTask", %"class.Ipopt::TimedTask", %"class.Ipopt::TimedTask", %"class.Ipopt::TimedTask", %"class.Ipopt::TimedTask", %"class.Ipopt::TimedTask", %"class.Ipopt::TimedTask", %"class.Ipopt::TimedTask", %"class.Ipopt::TimedTask", %"class.Ipopt::TimedTask", %"class.Ipopt::TimedTask", %"class.Ipopt::TimedTask", %"class.Ipopt::TimedTask", %"class.Ipopt::TimedTask", %"class.Ipopt::TimedTask", %"class.Ipopt::TimedTask", %"class.Ipopt::TimedTask", %"class.Ipopt::TimedTask", %"class.Ipopt::TimedTask", %"class.Ipopt::TimedTask", %"class.Ipopt::TimedTask", %"class.Ipopt::TimedTask", %"class.Ipopt::TimedTask", %"class.Ipopt::TimedTask", %"class.Ipopt::TimedTask", %"class.Ipopt::TimedTask", %"class.Ipopt::TimedTask", %"class.Ipopt::TimedTask", %"class.Ipopt::TimedTask", %"class.Ipopt::TimedTask" }
%"class.Ipopt::TimedTask" = type <{ double, double, double, double, double, double, i8, i8, i8, [5 x i8] }>
%"class.Ipopt::SmartPtr.30" = type { ptr }

@.str.64 = private unnamed_addr constant [53 x i8] c"\0A**************************************************\0A\00", align 1
@.str.66 = private unnamed_addr constant [54 x i8] c"\0A**************************************************\0A\0A\00", align 1
@.str.67 = private unnamed_addr constant [47 x i8] c"*** Update Barrier Parameter for Iteration %d:\00", align 1
@.str.68 = private unnamed_addr constant [23 x i8] c"Barrier Parameter: %e\0A\00", align 1
@.str.69 = private unnamed_addr constant [41 x i8] c"Barrier parameter could not be updated!\0A\00", align 1

; Function Attrs: mustprogress nounwind uwtable
define linkonce_odr noundef nonnull align 8 dereferenceable(2232) ptr @_ZNK5Ipopt8SmartPtrINS_9IpoptDataEEdeEv(ptr noundef nonnull align 8 dereferenceable(8) %0) #5 comdat align 2 {
  %2 = alloca ptr, align 8
  store ptr %0, ptr %2, align 8, !tbaa !251
  %3 = load ptr, ptr %2, align 8
  %4 = getelementptr inbounds nuw %"class.Ipopt::SmartPtr.1", ptr %3, i32 0, i32 0
  %5 = load ptr, ptr %4, align 8, !tbaa !253
  ret ptr %5
}

; Function Attrs: mustprogress nounwind uwtable
define linkonce_odr noundef nonnull align 8 dereferenceable(40) ptr @_ZNK5Ipopt8SmartPtrIKNS_10JournalistEEdeEv(ptr noundef nonnull align 8 dereferenceable(8) %0) #5 comdat align 2 {
  %2 = alloca ptr, align 8
  store ptr %0, ptr %2, align 8, !tbaa !245
  %3 = load ptr, ptr %2, align 8
  %4 = getelementptr inbounds nuw %"class.Ipopt::SmartPtr", ptr %3, i32 0, i32 0
  %5 = load ptr, ptr %4, align 8, !tbaa !247
  ret ptr %5
}

; Function Attrs: mustprogress nounwind uwtable
define linkonce_odr noundef double @_ZNK5Ipopt9IpoptData7curr_muEv(ptr noundef nonnull align 8 dereferenceable(2232) %0) #5 comdat align 2 {
  %2 = alloca ptr, align 8
  store ptr %0, ptr %2, align 8, !tbaa !92
  %3 = load ptr, ptr %2, align 8
  %4 = getelementptr inbounds nuw %"class.Ipopt::IpoptData", ptr %3, i32 0, i32 9
  %5 = load double, ptr %4, align 8, !tbaa !186
  ret double %5
}

; Function Attrs: mustprogress nounwind uwtable
define linkonce_odr noundef ptr @_ZNK5Ipopt8SmartPtrINS_8MuUpdateEEptEv(ptr noundef nonnull align 8 dereferenceable(8) %0) #5 comdat align 2 {
  %2 = alloca ptr, align 8
  store ptr %0, ptr %2, align 8, !tbaa !12
  %3 = load ptr, ptr %2, align 8
  %4 = getelementptr inbounds nuw %"class.Ipopt::SmartPtr.5", ptr %3, i32 0, i32 0
  %5 = load ptr, ptr %4, align 8, !tbaa !49
  ret ptr %5
}

; Function Attrs: mustprogress nounwind uwtable
define linkonce_odr noundef i32 @_ZNK5Ipopt9IpoptData10iter_countEv(ptr noundef nonnull align 8 dereferenceable(2232) %0) #5 comdat align 2 {
  %2 = alloca ptr, align 8
  store ptr %0, ptr %2, align 8, !tbaa !92
  %3 = load ptr, ptr %2, align 8
  %4 = getelementptr inbounds nuw %"class.Ipopt::IpoptData", ptr %3, i32 0, i32 8
  %5 = load i32, ptr %4, align 4, !tbaa !179
  ret i32 %5
}

; Function Attrs: mustprogress uwtable
define linkonce_odr noundef nonnull align 8 dereferenceable(2232) ptr @_ZNK5Ipopt23AlgorithmStrategyObject6IpDataEv(ptr noundef nonnull align 8 dereferenceable(49) %0) #4 comdat align 2 {
  %2 = alloca ptr, align 8
  store ptr %0, ptr %2, align 8, !tbaa !28
  %3 = load ptr, ptr %2, align 8
  %4 = getelementptr inbounds nuw %"class.Ipopt::AlgorithmStrategyObject", ptr %3, i32 0, i32 4
  %5 = call noundef nonnull align 8 dereferenceable(2232) ptr @_ZNK5Ipopt8SmartPtrINS_9IpoptDataEEdeEv(ptr noundef nonnull align 8 dereferenceable(8) %4)
  ret ptr %5
}

; Function Attrs: mustprogress uwtable
define linkonce_odr noundef nonnull align 8 dereferenceable(40) ptr @_ZNK5Ipopt23AlgorithmStrategyObject5JnlstEv(ptr noundef nonnull align 8 dereferenceable(49) %0) #4 comdat align 2 {
  %2 = alloca ptr, align 8
  store ptr %0, ptr %2, align 8, !tbaa !28
  %3 = load ptr, ptr %2, align 8
  %4 = getelementptr inbounds nuw %"class.Ipopt::AlgorithmStrategyObject", ptr %3, i32 0, i32 2
  %5 = call noundef nonnull align 8 dereferenceable(40) ptr @_ZNK5Ipopt8SmartPtrIKNS_10JournalistEEdeEv(ptr noundef nonnull align 8 dereferenceable(8) %4)
  ret ptr %5
}

; Function Attrs: mustprogress uwtable
define noundef zeroext i1 @_ZN5Ipopt14IpoptAlgorithm22UpdateBarrierParameterEv(ptr noundef nonnull align 8 dereferenceable(200) %0) #4 align 2 {
  %2 = alloca ptr, align 8
  %3 = alloca i8, align 1
  store ptr %0, ptr %2, align 8, !tbaa !3
  %4 = load ptr, ptr %2, align 8
  %5 = call noundef nonnull align 8 dereferenceable(40) ptr @_ZNK5Ipopt23AlgorithmStrategyObject5JnlstEv(ptr noundef nonnull align 8 dereferenceable(49) %4)
  %6 = load ptr, ptr %5, align 8, !tbaa !26
  %7 = getelementptr inbounds ptr, ptr %6, i64 2
  %8 = load ptr, ptr %7, align 8
  call void (ptr, i32, i32, ptr, ...) %8(ptr noundef nonnull align 8 dereferenceable(40) %5, i32 noundef 6, i32 noundef 2, ptr noundef @.str.64)
  %9 = call noundef nonnull align 8 dereferenceable(40) ptr @_ZNK5Ipopt23AlgorithmStrategyObject5JnlstEv(ptr noundef nonnull align 8 dereferenceable(49) %4)
  %10 = call noundef nonnull align 8 dereferenceable(2232) ptr @_ZNK5Ipopt23AlgorithmStrategyObject6IpDataEv(ptr noundef nonnull align 8 dereferenceable(49) %4)
  %11 = call noundef i32 @_ZNK5Ipopt9IpoptData10iter_countEv(ptr noundef nonnull align 8 dereferenceable(2232) %10)
  %12 = load ptr, ptr %9, align 8, !tbaa !26
  %13 = getelementptr inbounds ptr, ptr %12, i64 2
  %14 = load ptr, ptr %13, align 8
  call void (ptr, i32, i32, ptr, ...) %14(ptr noundef nonnull align 8 dereferenceable(40) %9, i32 noundef 6, i32 noundef 2, ptr noundef @.str.67, i32 noundef %11)
  %15 = call noundef nonnull align 8 dereferenceable(40) ptr @_ZNK5Ipopt23AlgorithmStrategyObject5JnlstEv(ptr noundef nonnull align 8 dereferenceable(49) %4)
  %16 = load ptr, ptr %15, align 8, !tbaa !26
  %17 = getelementptr inbounds ptr, ptr %16, i64 2
  %18 = load ptr, ptr %17, align 8
  call void (ptr, i32, i32, ptr, ...) %18(ptr noundef nonnull align 8 dereferenceable(40) %15, i32 noundef 6, i32 noundef 2, ptr noundef @.str.66)
  call void @llvm.lifetime.start.p0(i64 1, ptr %3) #3
  %19 = getelementptr inbounds nuw %"class.Ipopt::IpoptAlgorithm", ptr %4, i32 0, i32 3
  %20 = call noundef ptr @_ZNK5Ipopt8SmartPtrINS_8MuUpdateEEptEv(ptr noundef nonnull align 8 dereferenceable(8) %19)
  %21 = load ptr, ptr %20, align 8, !tbaa !26
  %22 = getelementptr inbounds ptr, ptr %21, i64 3
  %23 = load ptr, ptr %22, align 8
  %24 = call noundef zeroext i1 %23(ptr noundef nonnull align 8 dereferenceable(49) %20)
  %25 = zext i1 %24 to i8
  store i8 %25, ptr %3, align 1, !tbaa !78
  %26 = load i8, ptr %3, align 1, !tbaa !78, !range !79, !noundef !80
  %27 = trunc i8 %26 to i1
  br i1 %27, label %28, label %35

28:                                               ; preds = %1
  %29 = call noundef nonnull align 8 dereferenceable(40) ptr @_ZNK5Ipopt23AlgorithmStrategyObject5JnlstEv(ptr noundef nonnull align 8 dereferenceable(49) %4)
  %30 = call noundef nonnull align 8 dereferenceable(2232) ptr @_ZNK5Ipopt23AlgorithmStrategyObject6IpDataEv(ptr noundef nonnull align 8 dereferenceable(49) %4)
  %31 = call noundef double @_ZNK5Ipopt9IpoptData7curr_muEv(ptr noundef nonnull align 8 dereferenceable(2232) %30)
  %32 = load ptr, ptr %29, align 8, !tbaa !26
  %33 = getelementptr inbounds ptr, ptr %32, i64 2
  %34 = load ptr, ptr %33, align 8
  call void (ptr, i32, i32, ptr, ...) %34(ptr noundef nonnull align 8 dereferenceable(40) %29, i32 noundef 6, i32 noundef 2, ptr noundef @.str.68, double noundef %31)
  br label %40

35:                                               ; preds = %1
  %36 = call noundef nonnull align 8 dereferenceable(40) ptr @_ZNK5Ipopt23AlgorithmStrategyObject5JnlstEv(ptr noundef nonnull align 8 dereferenceable(49) %4)
  %37 = load ptr, ptr %36, align 8, !tbaa !26
  %38 = getelementptr inbounds ptr, ptr %37, i64 2
  %39 = load ptr, ptr %38, align 8
  call void (ptr, i32, i32, ptr, ...) %39(ptr noundef nonnull align 8 dereferenceable(40) %36, i32 noundef 6, i32 noundef 2, ptr noundef @.str.69)
  br label %40

40:                                               ; preds = %35, %28
  %41 = load i8, ptr %3, align 1, !tbaa !78, !range !79, !noundef !80
  %42 = trunc i8 %41 to i1
  call void @llvm.lifetime.end.p0(i64 1, ptr %3) #3
  ret i1 %42
}